target datalayout = "e-m:e-p270:32:32-p271:32:32-p272:64:64-i64:64-i128:128-f80:128-n8:16:32:64-S128"
target triple = "x86_64-pc-linux-gnu"

%union.pthread_mutex_t = type { %struct.__pthread_mutex_s }
%struct.__pthread_mutex_s = type { i32, i32, i32, i32, i32, i16, i16, %struct.__pthread_internal_list }
%struct.__pthread_internal_list = type { ptr, ptr }
%struct.connection = type { ptr, ptr, i8, ptr, ptr, ptr }

@actual_connection_key_once = internal global i32 0, align 4
@.str = private unnamed_addr constant [8 x i8] c"CURRENT\00", align 1
@actual_connection_key = internal global i32 0, align 4
@actual_connection = internal global ptr null, align 8
@connections_mutex = internal global %union.pthread_mutex_t zeroinitializer, align 8
@.str.6 = private unnamed_addr constant [6 x i8] c"YE001\00", align 1
@all_connections = internal global ptr null, align 8
@.str.30 = private unnamed_addr constant [4 x i8] c"ALL\00", align 1

; Function Attrs: nounwind uwtable
define void @ecpg_pthreads_init() #0 {
  %1 = call i32 @pthread_once(ptr noundef @actual_connection_key_once, ptr noundef @ecpg_actual_connection_init)
  ret void
}

; Function Attrs: nounwind uwtable
define internal ptr @ecpg_get_connection_nr(ptr noundef %0) #0 {
  %2 = alloca ptr, align 8
  %3 = alloca ptr, align 8
  %4 = alloca ptr, align 8
  store ptr %0, ptr %2, align 8
  call void @llvm.lifetime.start.p0(i64 8, ptr %3) #5
  store ptr null, ptr %3, align 8
  %5 = load ptr, ptr %2, align 8
  %6 = icmp eq ptr %5, null
  br i1 %6, label %11, label %7

7:                                                ; preds = %1
  %8 = load ptr, ptr %2, align 8
  %9 = call i32 @strcmp(ptr noundef %8, ptr noundef @.str) #6
  %10 = icmp eq i32 %9, 0
  br i1 %10, label %11, label %19

11:                                               ; preds = %7, %1
  call void @ecpg_pthreads_init()
  %12 = load i32, ptr @actual_connection_key, align 4
  %13 = call ptr @pthread_getspecific(i32 noundef %12) #5
  store ptr %13, ptr %3, align 8
  %14 = load ptr, ptr %3, align 8
  %15 = icmp eq ptr %14, null
  br i1 %15, label %16, label %18

16:                                               ; preds = %11
  %17 = load ptr, ptr @actual_connection, align 8
  store ptr %17, ptr %3, align 8
  br label %18

18:                                               ; preds = %16, %11
  br label %39

19:                                               ; preds = %7
  call void @llvm.lifetime.start.p0(i64 8, ptr %4) #5
  %20 = load ptr, ptr @all_connections, align 8
  store ptr %20, ptr %4, align 8
  br label %21

21:                                               ; preds = %33, %19
  %22 = load ptr, ptr %4, align 8
  %23 = icmp ne ptr %22, null
  br i1 %23, label %24, label %37

24:                                               ; preds = %21
  %25 = load ptr, ptr %2, align 8
  %26 = load ptr, ptr %4, align 8
  %27 = getelementptr inbounds nuw %struct.connection, ptr %26, i32 0, i32 0
  %28 = load ptr, ptr %27, align 8
  %29 = call i32 @strcmp(ptr noundef %25, ptr noundef %28) #6
  %30 = icmp eq i32 %29, 0
  br i1 %30, label %31, label %32

31:                                               ; preds = %24
  br label %37

32:                                               ; preds = %24
  br label %33

33:                                               ; preds = %32
  %34 = load ptr, ptr %4, align 8
  %35 = getelementptr inbounds nuw %struct.connection, ptr %34, i32 0, i32 5
  %36 = load ptr, ptr %35, align 8
  store ptr %36, ptr %4, align 8
  br label %21, !llvm.loop !3

37:                                               ; preds = %31, %21
  %38 = load ptr, ptr %4, align 8
  store ptr %38, ptr %3, align 8
  call void @llvm.lifetime.end.p0(i64 8, ptr %4) #5
  br label %39

39:                                               ; preds = %37, %18
  %40 = load ptr, ptr %3, align 8
  call void @llvm.lifetime.end.p0(i64 8, ptr %3) #5
  ret ptr %40
}

; Function Attrs: nounwind uwtable
define zeroext i1 @ECPGdisconnect(i32 noundef %0, ptr noundef %1) #0 {
  %3 = alloca i1, align 1
  %4 = alloca i32, align 4
  %5 = alloca ptr, align 8
  %6 = alloca ptr, align 8
  %7 = alloca ptr, align 8
  %8 = alloca i32, align 4
  %9 = alloca ptr, align 8
  store i32 %0, ptr %4, align 4
  store ptr %1, ptr %5, align 8
  call void @llvm.lifetime.start.p0(i64 8, ptr %6) #5
  %10 = call ptr @ECPGget_sqlca()
  store ptr %10, ptr %6, align 8
  call void @llvm.lifetime.start.p0(i64 8, ptr %7) #5
  %11 = load ptr, ptr %6, align 8
  %12 = icmp eq ptr %11, null
  br i1 %12, label %13, label %15

13:                                               ; preds = %2
  %14 = load i32, ptr %4, align 4
  call void @ecpg_raise(i32 noundef %14, i32 noundef -12, ptr noundef @.str.6, ptr noundef null)
  store i1 false, ptr %3, align 1
  store i32 1, ptr %8, align 4
  br label %47

15:                                               ; preds = %2
  %16 = call i32 @pthread_mutex_lock(ptr noundef @connections_mutex) #5
  %17 = load ptr, ptr %5, align 8
  %18 = call i32 @strcmp(ptr noundef %17, ptr noundef @.str.30) #6
  %19 = icmp eq i32 %18, 0
  br i1 %19, label %20, label %33

20:                                               ; preds = %15
  %21 = load ptr, ptr %6, align 8
  call void @ecpg_init_sqlca(ptr noundef %21)
  %22 = load ptr, ptr @all_connections, align 8
  store ptr %22, ptr %7, align 8
  br label %23

23:                                               ; preds = %26, %20
  %24 = load ptr, ptr %7, align 8
  %25 = icmp ne ptr %24, null
  br i1 %25, label %26, label %32

26:                                               ; preds = %23
  call void @llvm.lifetime.start.p0(i64 8, ptr %9) #5
  %27 = load ptr, ptr %7, align 8
  store ptr %27, ptr %9, align 8
  %28 = load ptr, ptr %7, align 8
  %29 = getelementptr inbounds nuw %struct.connection, ptr %28, i32 0, i32 5
  %30 = load ptr, ptr %29, align 8
  store ptr %30, ptr %7, align 8
  %31 = load ptr, ptr %9, align 8
  call void @ecpg_finish(ptr noundef %31)
  call void @llvm.lifetime.end.p0(i64 8, ptr %9) #5
  br label %23, !llvm.loop !16

32:                                               ; preds = %23
  br label %45

33:                                               ; preds = %15
  %34 = load ptr, ptr %5, align 8
  %35 = call ptr @ecpg_get_connection_nr(ptr noundef %34)
  store ptr %35, ptr %7, align 8
  %36 = load ptr, ptr %7, align 8
  %37 = load ptr, ptr %5, align 8
  %38 = load i32, ptr %4, align 4
  %39 = call zeroext i1 @ecpg_init(ptr noundef %36, ptr noundef %37, i32 noundef %38)
  br i1 %39, label %42, label %40

40:                                               ; preds = %33
  %41 = call i32 @pthread_mutex_unlock(ptr noundef @connections_mutex) #5
  store i1 false, ptr %3, align 1
  store i32 1, ptr %8, align 4
  br label %47

42:                                               ; preds = %33
  %43 = load ptr, ptr %7, align 8
  call void @ecpg_finish(ptr noundef %43)
  br label %44

44:                                               ; preds = %42
  br label %45

45:                                               ; preds = %44, %32
  %46 = call i32 @pthread_mutex_unlock(ptr noundef @connections_mutex) #5
  store i1 true, ptr %3, align 1
  store i32 1, ptr %8, align 4
  br label %47

47:                                               ; preds = %45, %40, %13
  call void @llvm.lifetime.end.p0(i64 8, ptr %7) #5
  call void @llvm.lifetime.end.p0(i64 8, ptr %6) #5
  %48 = load i1, ptr %3, align 1
  ret i1 %48
}