; Function Attrs: nounwind uwtable
define noundef zeroext i1 @ECPGdisconnect(i32 noundef %0, ptr noundef %1) local_unnamed_addr #0 {
  %3 = tail call ptr @ECPGget_sqlca() #8
  %4 = icmp eq ptr %3, null
  br i1 %4, label %5, label %6

5:                                                ; preds = %2
  tail call void @ecpg_raise(i32 noundef %0, i32 noundef -12, ptr noundef nonnull @.str.6, ptr noundef null) #8
  br label %33

6:                                                ; preds = %2
  %7 = tail call i32 @pthread_mutex_lock(ptr noundef nonnull @connections_mutex) #8
  %8 = tail call i32 @strcmp(ptr noundef nonnull dereferenceable(1) %1, ptr noundef nonnull dereferenceable(4) @.str.30) #9
  %9 = icmp eq i32 %8, 0
  br i1 %9, label %10, label %14

10:                                               ; preds = %6
  tail call void @ecpg_init_sqlca(ptr noundef nonnull %3) #8
  %11 = load ptr, ptr @all_connections, align 8
  %.not15 = icmp eq ptr %11, null
  br i1 %.not15, label %.loopexit, label %.lr.ph

.lr.ph:                                           ; preds = %10, %.lr.ph
  %.01316 = phi ptr [ %13, %.lr.ph ], [ %11, %10 ]
  %12 = getelementptr inbounds nuw i8, ptr %.01316, i64 40
  %13 = load ptr, ptr %12, align 8
  tail call fastcc void @ecpg_finish(ptr noundef nonnull %.01316)
  %.not = icmp eq ptr %13, null
  br i1 %.not, label %.loopexit, label %.lr.ph, !llvm.loop !16

14:                                               ; preds = %6
  %15 = tail call i32 @strcmp(ptr noundef nonnull readonly dereferenceable(1) %1, ptr noundef nonnull dereferenceable(8) @.str) #9
  %16 = icmp eq i32 %15, 0
  br i1 %16, label %17, label %.preheader.i

.preheader.i:                                     ; preds = %14
  %.012.i = load ptr, ptr @all_connections, align 8
  %.not13.i = icmp eq ptr %.012.i, null
  br i1 %.not13.i, label %ecpg_get_connection_nr.exit, label %.lr.ph.i

17:                                               ; preds = %14
  %18 = tail call i32 @pthread_once(ptr noundef nonnull @actual_connection_key_once, ptr noundef nonnull @ecpg_actual_connection_init) #8
  %19 = load i32, ptr @actual_connection_key, align 4
  %20 = tail call ptr @pthread_getspecific(i32 noundef %19) #8
  %21 = icmp eq ptr %20, null
  %22 = load ptr, ptr @actual_connection, align 8
  %spec.select.i = select i1 %21, ptr %22, ptr %20
  br label %ecpg_get_connection_nr.exit

.lr.ph.i:                                         ; preds = %.preheader.i, %26
  %.014.i = phi ptr [ %.0.i, %26 ], [ %.012.i, %.preheader.i ]
  %23 = load ptr, ptr %.014.i, align 8
  %24 = tail call i32 @strcmp(ptr noundef nonnull readonly dereferenceable(1) %1, ptr noundef nonnull dereferenceable(1) %23) #9
  %25 = icmp eq i32 %24, 0
  br i1 %25, label %ecpg_get_connection_nr.exit, label %26

26:                                               ; preds = %.lr.ph.i
  %27 = getelementptr inbounds nuw i8, ptr %.014.i, i64 40
  %.0.i = load ptr, ptr %27, align 8
  %.not.i = icmp eq ptr %.0.i, null
  br i1 %.not.i, label %ecpg_get_connection_nr.exit, label %.lr.ph.i, !llvm.loop !3

ecpg_get_connection_nr.exit:                      ; preds = %.lr.ph.i, %26, %.preheader.i, %17
  %.09.i = phi ptr [ %spec.select.i, %17 ], [ null, %.preheader.i ], [ null, %26 ], [ %.014.i, %.lr.ph.i ]
  %28 = tail call zeroext i1 @ecpg_init(ptr noundef %.09.i, ptr noundef nonnull %1, i32 noundef %0) #8
  br i1 %28, label %31, label %29

29:                                               ; preds = %ecpg_get_connection_nr.exit
  %30 = tail call i32 @pthread_mutex_unlock(ptr noundef nonnull @connections_mutex) #8
  br label %33

31:                                               ; preds = %ecpg_get_connection_nr.exit
  tail call fastcc void @ecpg_finish(ptr noundef %.09.i)
  br label %.loopexit

.loopexit:                                        ; preds = %.lr.ph, %10, %31
  %32 = tail call i32 @pthread_mutex_unlock(ptr noundef nonnull @connections_mutex) #8
  br label %33

33:                                               ; preds = %.loopexit, %29, %5
  %.0 = phi i1 [ false, %5 ], [ true, %.loopexit ], [ false, %29 ]
  ret i1 %.0
}